; ModuleID = '1564.c'
source_filename = "1564.c"
target datalayout = "e-m:e-p270:32:32-p271:32:32-p272:64:64-i64:64-f80:128-n8:16:32:64-S128"
target triple = "x86_64-pc-linux-gnu"

@.str = private unnamed_addr constant [3 x i8] c"%d\00", align 1
@.str.1 = private unnamed_addr constant [6 x i8] c"%d,%d\00", align 1

; Function Attrs: noinline nounwind uwtable
define dso_local i32 @main() #0 {
  %1 = alloca i32, align 4
  %2 = alloca [300 x i32], align 16
  %3 = alloca i32, align 4
  %4 = alloca i32, align 4
  %5 = alloca i32, align 4
  %6 = alloca i32, align 4
  %7 = alloca float, align 4
  %8 = alloca float, align 4
  %9 = alloca float, align 4
  store i32 0, i32* %1, align 4
  store i32 -1, i32* %4, align 4
  store i32 0, i32* %6, align 4
  store float 0.000000e+00, float* %8, align 4
  %10 = call i32 (i8*, ...) @__isoc99_scanf(i8* getelementptr inbounds ([3 x i8], [3 x i8]* @.str, i64 0, i64 0), i32* %5)
  store i32 0, i32* %3, align 4
  br label %11

11:                                               ; preds = %27, %0
  %12 = load i32, i32* %3, align 4
  %13 = load i32, i32* %5, align 4
  %14 = icmp slt i32 %12, %13
  br i1 %14, label %15, label %30

15:                                               ; preds = %11
  %16 = load i32, i32* %3, align 4
  %17 = sext i32 %16 to i64
  %18 = getelementptr inbounds [300 x i32], [300 x i32]* %2, i64 0, i64 %17
  %19 = call i32 (i8*, ...) @__isoc99_scanf(i8* getelementptr inbounds ([3 x i8], [3 x i8]* @.str, i64 0, i64 0), i32* %18)
  %20 = load i32, i32* %3, align 4
  %21 = sext i32 %20 to i64
  %22 = getelementptr inbounds [300 x i32], [300 x i32]* %2, i64 0, i64 %21
  %23 = load i32, i32* %22, align 4
  %24 = sitofp i32 %23 to float
  %25 = load float, float* %8, align 4
  %26 = fadd float %25, %24
  store float %26, float* %8, align 4
  br label %27

27:                                               ; preds = %15
  %28 = load i32, i32* %3, align 4
  %29 = add nsw i32 %28, 1
  store i32 %29, i32* %3, align 4
  br label %11

30:                                               ; preds = %11
  %31 = load float, float* %8, align 4
  %32 = load i32, i32* %5, align 4
  %33 = sitofp i32 %32 to float
  %34 = fdiv float %31, %33
  store float %34, float* %7, align 4
  %35 = getelementptr inbounds [300 x i32], [300 x i32]* %2, i64 0, i64 0
  %36 = load i32, i32* %35, align 16
  %37 = sitofp i32 %36 to float
  %38 = load float, float* %7, align 4
  %39 = fsub float %37, %38
  %40 = call float @abss(float %39)
  store float %40, float* %9, align 4
  store i32 1, i32* %3, align 4
  br label %41

41:                                               ; preds = %67, %30
  %42 = load i32, i32* %3, align 4
  %43 = load i32, i32* %5, align 4
  %44 = icmp slt i32 %42, %43
  br i1 %44, label %45, label %70

45:                                               ; preds = %41
  %46 = load i32, i32* %3, align 4
  %47 = sext i32 %46 to i64
  %48 = getelementptr inbounds [300 x i32], [300 x i32]* %2, i64 0, i64 %47
  %49 = load i32, i32* %48, align 4
  %50 = sitofp i32 %49 to float
  %51 = load float, float* %7, align 4
  %52 = fsub float %50, %51
  %53 = call float @abss(float %52)
  %54 = load float, float* %9, align 4
  %55 = fcmp ogt float %53, %54
  br i1 %55, label %56, label %66

56:                                               ; preds = %45
  %57 = load i32, i32* %3, align 4
  %58 = sext i32 %57 to i64
  %59 = getelementptr inbounds [300 x i32], [300 x i32]* %2, i64 0, i64 %58
  %60 = load i32, i32* %59, align 4
  %61 = sitofp i32 %60 to float
  %62 = load float, float* %7, align 4
  %63 = fsub float %61, %62
  %64 = call float @abss(float %63)
  store float %64, float* %9, align 4
  %65 = load i32, i32* %3, align 4
  store i32 %65, i32* %6, align 4
  br label %66

66:                                               ; preds = %56, %45
  br label %67

67:                                               ; preds = %66
  %68 = load i32, i32* %3, align 4
  %69 = add nsw i32 %68, 1
  store i32 %69, i32* %3, align 4
  br label %41

70:                                               ; preds = %41
  store i32 0, i32* %3, align 4
  br label %71

71:                                               ; preds = %90, %70
  %72 = load i32, i32* %3, align 4
  %73 = load i32, i32* %5, align 4
  %74 = icmp slt i32 %72, %73
  br i1 %74, label %75, label %93

75:                                               ; preds = %71
  %76 = load i32, i32* %3, align 4
  %77 = sext i32 %76 to i64
  %78 = getelementptr inbounds [300 x i32], [300 x i32]* %2, i64 0, i64 %77
  %79 = load i32, i32* %78, align 4
  %80 = sitofp i32 %79 to float
  %81 = load float, float* %7, align 4
  %82 = fsub float %80, %81
  %83 = call float @abss(float %82)
  %84 = load float, float* %9, align 4
  %85 = fcmp oeq float %83, %84
  br i1 %85, label %86, label %89

86:                                               ; preds = %75
  %87 = load i32, i32* %4, align 4
  %88 = add nsw i32 %87, 1
  store i32 %88, i32* %4, align 4
  br label %89

89:                                               ; preds = %86, %75
  br label %90

90:                                               ; preds = %89
  %91 = load i32, i32* %3, align 4
  %92 = add nsw i32 %91, 1
  store i32 %92, i32* %3, align 4
  br label %71

93:                                               ; preds = %71
  %94 = load i32, i32* %4, align 4
  %95 = icmp eq i32 %94, 0
  br i1 %95, label %96, label %102

96:                                               ; preds = %93
  %97 = load i32, i32* %6, align 4
  %98 = sext i32 %97 to i64
  %99 = getelementptr inbounds [300 x i32], [300 x i32]* %2, i64 0, i64 %98
  %100 = load i32, i32* %99, align 4
  %101 = call i32 (i8*, ...) @printf(i8* getelementptr inbounds ([3 x i8], [3 x i8]* @.str, i64 0, i64 0), i32 %100)
  br label %139

102:                                              ; preds = %93
  %103 = load i32, i32* %6, align 4
  %104 = sext i32 %103 to i64
  %105 = getelementptr inbounds [300 x i32], [300 x i32]* %2, i64 0, i64 %104
  %106 = load i32, i32* %105, align 4
  %107 = sitofp i32 %106 to float
  %108 = load float, float* %7, align 4
  %109 = fcmp olt float %107, %108
  br i1 %109, label %110, label %124

110:                                              ; preds = %102
  %111 = load i32, i32* %6, align 4
  %112 = sext i32 %111 to i64
  %113 = getelementptr inbounds [300 x i32], [300 x i32]* %2, i64 0, i64 %112
  %114 = load i32, i32* %113, align 4
  %115 = load float, float* %7, align 4
  %116 = fptosi float %115 to i32
  %117 = mul nsw i32 2, %116
  %118 = load i32, i32* %6, align 4
  %119 = sext i32 %118 to i64
  %120 = getelementptr inbounds [300 x i32], [300 x i32]* %2, i64 0, i64 %119
  %121 = load i32, i32* %120, align 4
  %122 = sub nsw i32 %117, %121
  %123 = call i32 (i8*, ...) @printf(i8* getelementptr inbounds ([6 x i8], [6 x i8]* @.str.1, i64 0, i64 0), i32 %114, i32 %122)
  br label %138

124:                                              ; preds = %102
  %125 = load float, float* %7, align 4
  %126 = fptosi float %125 to i32
  %127 = mul nsw i32 2, %126
  %128 = load i32, i32* %6, align 4
  %129 = sext i32 %128 to i64
  %130 = getelementptr inbounds [300 x i32], [300 x i32]* %2, i64 0, i64 %129
  %131 = load i32, i32* %130, align 4
  %132 = sub nsw i32 %127, %131
  %133 = load i32, i32* %6, align 4
  %134 = sext i32 %133 to i64
  %135 = getelementptr inbounds [300 x i32], [300 x i32]* %2, i64 0, i64 %134
  %136 = load i32, i32* %135, align 4
  %137 = call i32 (i8*, ...) @printf(i8* getelementptr inbounds ([6 x i8], [6 x i8]* @.str.1, i64 0, i64 0), i32 %132, i32 %136)
  br label %138

138:                                              ; preds = %124, %110
  br label %139

139:                                              ; preds = %138, %96
  %140 = load i32, i32* %1, align 4
  ret i32 %140
}

declare dso_local i32 @__isoc99_scanf(i8*, ...) #1

; Function Attrs: noinline nounwind uwtable
define dso_local float @abss(float %0) #0 {
  %2 = alloca float, align 4
  %3 = alloca float, align 4
  store float %0, float* %3, align 4
  %4 = load float, float* %3, align 4
  %5 = fcmp olt float %4, 0.000000e+00
  br i1 %5, label %6, label %9

6:                                                ; preds = %1
  %7 = load float, float* %3, align 4
  %8 = fneg float %7
  store float %8, float* %2, align 4
  br label %11

9:                                                ; preds = %1
  %10 = load float, float* %3, align 4
  store float %10, float* %2, align 4
  br label %11

11:                                               ; preds = %9, %6
  %12 = load float, float* %2, align 4
  ret float %12
}

declare dso_local i32 @printf(i8*, ...) #1


!llvm.module.flags = !{!0}
!llvm.ident = !{!1}

!0 = !{i32 1, !"wchar_size", i32 4}
!1 = !{!"clang version 10.0.0-4ubuntu1 "}
